target datalayout = "e-m:e-p270:32:32-p271:32:32-p272:64:64-i64:64-i128:128-f80:128-n8:16:32:64-S128"
target triple = "x86_64-pc-linux-gnu"

%union.anon.0 = type { i64 }

@.str.3 = private unnamed_addr constant [37 x i8] c"PMIX ERROR: %s in file %s at line %d\00", align 1
@.str.4 = private unnamed_addr constant [17 x i8] c"psquash_native.c\00", align 1

; Function Attrs: inlinehint nounwind willreturn memory(none) uwtable
define internal i64 @pmix_hton64(i64 noundef %0) #5 {
  %2 = alloca i64, align 8
  %3 = alloca i64, align 8
  %4 = alloca %union.anon.0, align 8
  %5 = alloca %union.anon.0, align 8
  %6 = alloca i32, align 4
  store i64 %0, ptr %3, align 8, !tbaa !38
  call void @llvm.lifetime.start.p0(i64 8, ptr %4) #6
  call void @llvm.lifetime.start.p0(i64 8, ptr %5) #6
  %7 = call i32 @__bswap_32(i32 noundef 1)
  %8 = zext i32 %7 to i64
  %9 = icmp eq i64 %8, 1
  br i1 %9, label %10, label %12

10:                                               ; preds = %1
  %11 = load i64, ptr %3, align 8, !tbaa !38
  store i64 %11, ptr %2, align 8
  store i32 1, ptr %6, align 4
  br label %23

12:                                               ; preds = %1
  %13 = load i64, ptr %3, align 8, !tbaa !38
  store i64 %13, ptr %4, align 8, !tbaa !40
  %14 = getelementptr inbounds [2 x i32], ptr %4, i64 0, i64 1
  %15 = load i32, ptr %14, align 4, !tbaa !40
  %16 = call i32 @__bswap_32(i32 noundef %15)
  %17 = getelementptr inbounds [2 x i32], ptr %5, i64 0, i64 0
  store i32 %16, ptr %17, align 8, !tbaa !40
  %18 = getelementptr inbounds [2 x i32], ptr %4, i64 0, i64 0
  %19 = load i32, ptr %18, align 8, !tbaa !40
  %20 = call i32 @__bswap_32(i32 noundef %19)
  %21 = getelementptr inbounds [2 x i32], ptr %5, i64 0, i64 1
  store i32 %20, ptr %21, align 4, !tbaa !40
  %22 = load i64, ptr %5, align 8, !tbaa !40
  store i64 %22, ptr %2, align 8
  store i32 1, ptr %6, align 4
  br label %23

23:                                               ; preds = %12, %10
  call void @llvm.lifetime.end.p0(i64 8, ptr %5) #6
  call void @llvm.lifetime.end.p0(i64 8, ptr %4) #6
  %24 = load i64, ptr %2, align 8
  ret i64 %24
}

; Function Attrs: inlinehint nounwind uwtable
define internal i32 @__bswap_32(i32 noundef %0) #4 {
  %2 = alloca i32, align 4
  store i32 %0, ptr %2, align 4, !tbaa !37
  %3 = load i32, ptr %2, align 4, !tbaa !37
  %4 = and i32 %3, -16777216
  %5 = lshr i32 %4, 24
  %6 = load i32, ptr %2, align 4, !tbaa !37
  %7 = and i32 %6, 16711680
  %8 = lshr i32 %7, 8
  %9 = or i32 %5, %8
  %10 = load i32, ptr %2, align 4, !tbaa !37
  %11 = and i32 %10, 65280
  %12 = shl i32 %11, 8
  %13 = or i32 %9, %12
  %14 = load i32, ptr %2, align 4, !tbaa !37
  %15 = and i32 %14, 255
  %16 = shl i32 %15, 24
  %17 = or i32 %13, %16
  ret i32 %17
}

; Function Attrs: inlinehint nounwind uwtable
define internal zeroext i16 @__bswap_16(i16 noundef zeroext %0) #4 {
  %2 = alloca i16, align 2
  store i16 %0, ptr %2, align 2, !tbaa !35
  %3 = load i16, ptr %2, align 2, !tbaa !35
  %4 = zext i16 %3 to i32
  %5 = ashr i32 %4, 8
  %6 = and i32 %5, 255
  %7 = load i16, ptr %2, align 2, !tbaa !35
  %8 = zext i16 %7 to i32
  %9 = and i32 %8, 255
  %10 = shl i32 %9, 8
  %11 = or i32 %6, %10
  %12 = trunc i32 %11 to i16
  ret i16 %12
}

; Function Attrs: nounwind uwtable
define internal i32 @native_encode_int(i16 noundef zeroext %0, ptr noundef %1, ptr noundef %2, ptr noundef %3) #0 {
  %5 = alloca i32, align 4
  %6 = alloca i16, align 2
  %7 = alloca ptr, align 8
  %8 = alloca ptr, align 8
  %9 = alloca ptr, align 8
  %10 = alloca i32, align 4
  %11 = alloca i64, align 8
  %12 = alloca i64, align 8
  %13 = alloca i32, align 4
  %14 = alloca i16, align 2
  %15 = alloca i32, align 4
  %16 = alloca i64, align 8
  store i16 %0, ptr %6, align 2, !tbaa !35
  store ptr %1, ptr %7, align 8, !tbaa !39
  store ptr %2, ptr %8, align 8, !tbaa !39
  store ptr %3, ptr %9, align 8, !tbaa !36
  call void @llvm.lifetime.start.p0(i64 4, ptr %10) #6
  call void @llvm.lifetime.start.p0(i64 8, ptr %11) #6
  store i64 0, ptr %11, align 8, !tbaa !38
  call void @llvm.lifetime.start.p0(i64 8, ptr %12) #6
  br label %17

17:                                               ; preds = %4
  store i32 0, ptr %10, align 4, !tbaa !37
  %18 = load i16, ptr %6, align 2, !tbaa !35
  %19 = zext i16 %18 to i32
  switch i32 %19, label %24 [
    i32 8, label %20
    i32 13, label %20
    i32 6, label %21
    i32 9, label %21
    i32 11, label %21
    i32 14, label %21
    i32 10, label %22
    i32 15, label %22
    i32 4, label %23
  ]

20:                                               ; preds = %17, %17
  store i64 2, ptr %12, align 8, !tbaa !38
  br label %25

21:                                               ; preds = %17, %17, %17, %17
  store i64 4, ptr %12, align 8, !tbaa !38
  br label %25

22:                                               ; preds = %17, %17
  store i64 8, ptr %12, align 8, !tbaa !38
  br label %25

23:                                               ; preds = %17
  store i64 8, ptr %12, align 8, !tbaa !38
  br label %25

24:                                               ; preds = %17
  store i32 -27, ptr %10, align 4, !tbaa !37
  br label %25

25:                                               ; preds = %24, %23, %22, %21, %20
  br label %26

26:                                               ; preds = %25
  br label %27

27:                                               ; preds = %26
  %28 = load i32, ptr %10, align 4, !tbaa !37
  %29 = icmp ne i32 0, %28
  br i1 %29, label %30, label %41

30:                                               ; preds = %27
  br label %31

31:                                               ; preds = %30
  %32 = load i32, ptr %10, align 4, !tbaa !37
  %33 = icmp ne i32 -2, %32
  br i1 %33, label %34, label %37

34:                                               ; preds = %31
  %35 = load i32, ptr %10, align 4, !tbaa !37
  %36 = call ptr @PMIx_Error_string(i32 noundef %35)
  call void (i32, ptr, ...) @pmix_output(i32 noundef 0, ptr noundef @.str.3, ptr noundef %36, ptr noundef @.str.4, i32 noundef 139)
  br label %37

37:                                               ; preds = %34, %31
  br label %38

38:                                               ; preds = %37
  br label %39

39:                                               ; preds = %38
  %40 = load i32, ptr %10, align 4, !tbaa !37
  store i32 %40, ptr %5, align 4
  store i32 1, ptr %13, align 4
  br label %85

41:                                               ; preds = %27
  %42 = load ptr, ptr %7, align 8, !tbaa !39
  %43 = load i64, ptr %12, align 8, !tbaa !38
  call void @llvm.memcpy.p0.p0.i64(ptr align 8 %11, ptr align 1 %42, i64 %43, i1 false)
  br label %44

44:                                               ; preds = %41
  store i32 0, ptr %10, align 4, !tbaa !37
  %45 = load i16, ptr %6, align 2, !tbaa !35
  %46 = zext i16 %45 to i32
  switch i32 %46, label %63 [
    i32 8, label %47
    i32 13, label %47
    i32 6, label %53
    i32 11, label %53
    i32 9, label %53
    i32 14, label %53
    i32 4, label %59
    i32 10, label %59
    i32 15, label %59
  ]

47:                                               ; preds = %44, %44
  call void @llvm.lifetime.start.p0(i64 2, ptr %14) #6
  %48 = load i64, ptr %11, align 8, !tbaa !38
  %49 = trunc i64 %48 to i16
  store i16 %49, ptr %14, align 2, !tbaa !35
  %50 = load i16, ptr %14, align 2, !tbaa !35
  %51 = call zeroext i16 @__bswap_16(i16 noundef zeroext %50)
  %52 = zext i16 %51 to i64
  store i64 %52, ptr %11, align 8, !tbaa !38
  store i32 9, ptr %13, align 4
  call void @llvm.lifetime.end.p0(i64 2, ptr %14) #6
  br label %64

53:                                               ; preds = %44, %44, %44, %44
  call void @llvm.lifetime.start.p0(i64 4, ptr %15) #6
  %54 = load i64, ptr %11, align 8, !tbaa !38
  %55 = trunc i64 %54 to i32
  store i32 %55, ptr %15, align 4, !tbaa !37
  %56 = load i32, ptr %15, align 4, !tbaa !37
  %57 = call i32 @__bswap_32(i32 noundef %56)
  %58 = zext i32 %57 to i64
  store i64 %58, ptr %11, align 8, !tbaa !38
  store i32 9, ptr %13, align 4
  call void @llvm.lifetime.end.p0(i64 4, ptr %15) #6
  br label %64

59:                                               ; preds = %44, %44, %44
  call void @llvm.lifetime.start.p0(i64 8, ptr %16) #6
  %60 = load i64, ptr %11, align 8, !tbaa !38
  store i64 %60, ptr %16, align 8, !tbaa !38
  %61 = load i64, ptr %16, align 8, !tbaa !38
  %62 = call i64 @pmix_hton64(i64 noundef %61) #7
  store i64 %62, ptr %11, align 8, !tbaa !38
  store i32 9, ptr %13, align 4
  call void @llvm.lifetime.end.p0(i64 8, ptr %16) #6
  br label %64

63:                                               ; preds = %44
  store i32 -27, ptr %10, align 4, !tbaa !37
  br label %64

64:                                               ; preds = %63, %59, %53, %47
  br label %65

65:                                               ; preds = %64
  br label %66

66:                                               ; preds = %65
  %67 = load i32, ptr %10, align 4, !tbaa !37
  %68 = icmp ne i32 0, %67
  br i1 %68, label %69, label %80

69:                                               ; preds = %66
  br label %70

70:                                               ; preds = %69
  %71 = load i32, ptr %10, align 4, !tbaa !37
  %72 = icmp ne i32 -2, %71
  br i1 %72, label %73, label %76

73:                                               ; preds = %70
  %74 = load i32, ptr %10, align 4, !tbaa !37
  %75 = call ptr @PMIx_Error_string(i32 noundef %74)
  call void (i32, ptr, ...) @pmix_output(i32 noundef 0, ptr noundef @.str.3, ptr noundef %75, ptr noundef @.str.4, i32 noundef 145)
  br label %76

76:                                               ; preds = %73, %70
  br label %77

77:                                               ; preds = %76
  br label %78

78:                                               ; preds = %77
  %79 = load i32, ptr %10, align 4, !tbaa !37
  store i32 %79, ptr %5, align 4
  store i32 1, ptr %13, align 4
  br label %85

80:                                               ; preds = %66
  %81 = load ptr, ptr %8, align 8, !tbaa !39
  %82 = load i64, ptr %12, align 8, !tbaa !38
  call void @llvm.memcpy.p0.p0.i64(ptr align 1 %81, ptr align 8 %11, i64 %82, i1 false)
  %83 = load i64, ptr %12, align 8, !tbaa !38
  %84 = load ptr, ptr %9, align 8, !tbaa !36
  store i64 %83, ptr %84, align 8, !tbaa !38
  store i32 0, ptr %5, align 4
  store i32 1, ptr %13, align 4
  br label %85

85:                                               ; preds = %80, %78, %39
  call void @llvm.lifetime.end.p0(i64 8, ptr %12) #6
  call void @llvm.lifetime.end.p0(i64 8, ptr %11) #6
  call void @llvm.lifetime.end.p0(i64 4, ptr %10) #6
  %86 = load i32, ptr %5, align 4
  ret i32 %86
}