; Function Attrs: nounwind uwtable
define internal range(i32 -27, 1) i32 @native_encode_int(i16 noundef zeroext %0, ptr noundef readonly captures(none) %1, ptr noundef writeonly captures(none) %2, ptr noundef writeonly captures(none) %3) #0 {
  %5 = alloca i64, align 8
  call void @llvm.lifetime.start.p0(i64 8, ptr nonnull %5)
  store i64 0, ptr %5, align 8, !tbaa !35
  %switch.tableidx = add i16 %0, -4
  %6 = icmp ult i16 %switch.tableidx, 12
  br i1 %6, label %switch.hole_check, label %7

7:                                                ; preds = %switch.hole_check, %4
  %8 = tail call ptr @PMIx_Error_string(i32 noundef -27) #6
  tail call void (i32, ptr, ...) @pmix_output(i32 noundef 0, ptr noundef nonnull @.str.3, ptr noundef %8, ptr noundef nonnull @.str.4, i32 noundef 139) #6
  br label %21

switch.hole_check:                                ; preds = %4
  %switch.shifted = lshr i16 3829, %switch.tableidx
  %switch.lobit = trunc i16 %switch.shifted to i1
  br i1 %switch.lobit, label %switch.lookup, label %7

switch.lookup:                                    ; preds = %switch.hole_check
  %9 = zext nneg i16 %switch.tableidx to i64
  %switch.gep = getelementptr inbounds nuw [12 x i64], ptr @switch.table.native_decode_int, i64 0, i64 %9
  %switch.load = load i64, ptr %switch.gep, align 8
  call void @llvm.memcpy.p0.p0.i64(ptr noundef nonnull align 8 dereferenceable(1) %5, ptr noundef nonnull align 1 dereferenceable(1) %1, i64 %switch.load, i1 false)
  switch i16 %0, label %18 [
    i16 8, label %10
    i16 13, label %10
    i16 6, label %13
    i16 11, label %13
    i16 9, label %13
    i16 14, label %13
    i16 4, label %17
    i16 10, label %17
    i16 15, label %17
  ]

10:                                               ; preds = %switch.lookup, %switch.lookup
  %.0..0..0..0. = load i64, ptr %5, align 8, !tbaa !35
  %11 = trunc i64 %.0..0..0..0. to i16
  %rev.i = tail call noundef i16 @llvm.bswap.i16(i16 %11)
  %12 = zext i16 %rev.i to i64
  br label %20

13:                                               ; preds = %switch.lookup, %switch.lookup, %switch.lookup, %switch.lookup
  %.0..0..0..0.6 = load i64, ptr %5, align 8, !tbaa !35
  %14 = trunc i64 %.0..0..0..0.6 to i32
  %15 = tail call noundef i32 @llvm.bswap.i32(i32 %14)
  %16 = zext i32 %15 to i64
  br label %20

17:                                               ; preds = %switch.lookup, %switch.lookup, %switch.lookup
  %.0..0..0..0.7 = load i64, ptr %5, align 8, !tbaa !35
  %.sroa.0.0.insert.insert.i = tail call noundef i64 @llvm.bswap.i64(i64 %.0..0..0..0.7)
  br label %20

18:                                               ; preds = %switch.lookup
  %19 = tail call ptr @PMIx_Error_string(i32 noundef -27) #6
  tail call void (i32, ptr, ...) @pmix_output(i32 noundef 0, ptr noundef nonnull @.str.3, ptr noundef %19, ptr noundef nonnull @.str.4, i32 noundef 145) #6
  br label %21

20:                                               ; preds = %17, %13, %10
  %.sroa.0.0.insert.insert.i.sink = phi i64 [ %.sroa.0.0.insert.insert.i, %17 ], [ %16, %13 ], [ %12, %10 ]
  store i64 %.sroa.0.0.insert.insert.i.sink, ptr %5, align 8, !tbaa !35
  call void @llvm.memcpy.p0.p0.i64(ptr noundef nonnull align 1 dereferenceable(1) %2, ptr noundef nonnull align 8 dereferenceable(1) %5, i64 %switch.load, i1 false)
  store i64 %switch.load, ptr %3, align 8, !tbaa !35
  br label %21

21:                                               ; preds = %20, %18, %7
  %.0 = phi i32 [ -27, %7 ], [ -27, %18 ], [ 0, %20 ]
  call void @llvm.lifetime.end.p0(i64 8, ptr nonnull %5)
  ret i32 %.0
}